target datalayout = "e-m:e-p270:32:32-p271:32:32-p272:64:64-i64:64-i128:128-f80:128-n8:16:32:64-S128"
target triple = "x86_64-pc-linux-gnu"

%struct._object = type { %union.anon, ptr }
%union.anon = type { i64 }

@_Py_NoneStruct = external global %struct._object, align 8
@.str.51 = private unnamed_addr constant [17 x i8] c"PyErr_Occurred()\00", align 1
@.str.52 = private unnamed_addr constant [47 x i8] c"../cpython/Modules/_testlimitedcapi/abstract.c\00", align 1
@.str.53 = private unnamed_addr constant [18 x i8] c"!PyErr_Occurred()\00", align 1
@.str.57 = private unnamed_addr constant [5 x i8] c"OnnO\00", align 1
@__PRETTY_FUNCTION__.sequence_setslice = private unnamed_addr constant [52 x i8] c"PyObject *sequence_setslice(PyObject *, PyObject *)\00", align 1

; Function Attrs: nounwind uwtable
define internal ptr @sequence_setslice(ptr noundef %0, ptr noundef %1) #0 {
  %3 = alloca ptr, align 8
  %4 = alloca ptr, align 8
  %5 = alloca ptr, align 8
  %6 = alloca ptr, align 8
  %7 = alloca ptr, align 8
  %8 = alloca i64, align 8
  %9 = alloca i64, align 8
  %10 = alloca i32, align 4
  %11 = alloca i32, align 4
  store ptr %0, ptr %4, align 8, !tbaa !3
  store ptr %1, ptr %5, align 8, !tbaa !3
  call void @llvm.lifetime.start.p0(i64 8, ptr %6) #4
  call void @llvm.lifetime.start.p0(i64 8, ptr %7) #4
  call void @llvm.lifetime.start.p0(i64 8, ptr %8) #4
  call void @llvm.lifetime.start.p0(i64 8, ptr %9) #4
  %12 = load ptr, ptr %5, align 8, !tbaa !3
  %13 = call i32 (ptr, ptr, ...) @PyArg_ParseTuple(ptr noundef %12, ptr noundef @.str.57, ptr noundef %6, ptr noundef %8, ptr noundef %9, ptr noundef %7)
  %14 = icmp ne i32 %13, 0
  br i1 %14, label %16, label %15

15:                                               ; preds = %2
  store ptr null, ptr %3, align 8
  store i32 1, ptr %10, align 4
  br label %59

16:                                               ; preds = %2
  br label %17

17:                                               ; preds = %16
  %18 = load ptr, ptr %6, align 8, !tbaa !3
  %19 = icmp eq ptr %18, @_Py_NoneStruct
  br i1 %19, label %20, label %21

20:                                               ; preds = %17
  store ptr null, ptr %6, align 8, !tbaa !3
  br label %21

21:                                               ; preds = %20, %17
  br label %22

22:                                               ; preds = %21
  br label %23

23:                                               ; preds = %22
  br label %24

24:                                               ; preds = %23
  %25 = load ptr, ptr %7, align 8, !tbaa !3
  %26 = icmp eq ptr %25, @_Py_NoneStruct
  br i1 %26, label %27, label %28

27:                                               ; preds = %24
  store ptr null, ptr %7, align 8, !tbaa !3
  br label %28

28:                                               ; preds = %27, %24
  br label %29

29:                                               ; preds = %28
  br label %30

30:                                               ; preds = %29
  br label %31

31:                                               ; preds = %30
  call void @llvm.lifetime.start.p0(i64 4, ptr %11) #4
  %32 = load ptr, ptr %6, align 8, !tbaa !3
  %33 = load i64, ptr %8, align 8, !tbaa !12
  %34 = load i64, ptr %9, align 8, !tbaa !12
  %35 = load ptr, ptr %7, align 8, !tbaa !3
  %36 = call i32 @PySequence_SetSlice(ptr noundef %32, i64 noundef %33, i64 noundef %34, ptr noundef %35)
  store i32 %36, ptr %11, align 4, !tbaa !10
  %37 = load i32, ptr %11, align 4, !tbaa !10
  %38 = icmp eq i32 %37, -1
  br i1 %38, label %39, label %46

39:                                               ; preds = %31
  %40 = call ptr @PyErr_Occurred()
  %41 = icmp ne ptr %40, null
  br i1 %41, label %42, label %43

42:                                               ; preds = %39
  br label %45

43:                                               ; preds = %39
  call void @__assert_fail(ptr noundef @.str.51, ptr noundef @.str.52, i32 noundef 449, ptr noundef @__PRETTY_FUNCTION__.sequence_setslice) #5
  unreachable

44:                                               ; No predecessors!
  br label %45

45:                                               ; preds = %44, %42
  store ptr null, ptr %3, align 8
  store i32 1, ptr %10, align 4
  br label %56

46:                                               ; preds = %31
  %47 = call ptr @PyErr_Occurred()
  %48 = icmp ne ptr %47, null
  br i1 %48, label %50, label %49

49:                                               ; preds = %46
  br label %52

50:                                               ; preds = %46
  call void @__assert_fail(ptr noundef @.str.53, ptr noundef @.str.52, i32 noundef 449, ptr noundef @__PRETTY_FUNCTION__.sequence_setslice) #5
  unreachable

51:                                               ; No predecessors!
  br label %52

52:                                               ; preds = %51, %49
  %53 = load i32, ptr %11, align 4, !tbaa !10
  %54 = sext i32 %53 to i64
  %55 = call ptr @PyLong_FromLong(i64 noundef %54)
  store ptr %55, ptr %3, align 8
  store i32 1, ptr %10, align 4
  br label %56

56:                                               ; preds = %52, %45
  call void @llvm.lifetime.end.p0(i64 4, ptr %11) #4
  br label %59

57:                                               ; No predecessors!
  br label %58

58:                                               ; preds = %57
  store i32 0, ptr %10, align 4
  br label %59

59:                                               ; preds = %58, %56, %15
  call void @llvm.lifetime.end.p0(i64 8, ptr %9) #4
  call void @llvm.lifetime.end.p0(i64 8, ptr %8) #4
  call void @llvm.lifetime.end.p0(i64 8, ptr %7) #4
  call void @llvm.lifetime.end.p0(i64 8, ptr %6) #4
  %60 = load i32, ptr %10, align 4
  switch i32 %60, label %63 [
    i32 0, label %61
    i32 1, label %61
  ]

61:                                               ; preds = %59, %59
  %62 = load ptr, ptr %3, align 8
  ret ptr %62

63:                                               ; preds = %59
  unreachable
}