; Function Attrs: nounwind uwtable
define internal ptr @sequence_setslice(ptr readnone captures(none) %0, ptr noundef %1) #0 {
  %3 = alloca ptr, align 8
  %4 = alloca ptr, align 8
  %5 = alloca i64, align 8
  %6 = alloca i64, align 8
  call void @llvm.lifetime.start.p0(i64 8, ptr nonnull %3) #4
  call void @llvm.lifetime.start.p0(i64 8, ptr nonnull %4) #4
  call void @llvm.lifetime.start.p0(i64 8, ptr nonnull %5) #4
  call void @llvm.lifetime.start.p0(i64 8, ptr nonnull %6) #4
  %7 = call i32 (ptr, ptr, ...) @PyArg_ParseTuple(ptr noundef %1, ptr noundef nonnull @.str.57, ptr noundef nonnull %3, ptr noundef nonnull %5, ptr noundef nonnull %6, ptr noundef nonnull %4) #4
  %.not = icmp eq i32 %7, 0
  br i1 %.not, label %31, label %8

8:                                                ; preds = %2
  %9 = load ptr, ptr %3, align 8, !tbaa !3
  %10 = icmp eq ptr %9, @_Py_NoneStruct
  br i1 %10, label %11, label %12

11:                                               ; preds = %8
  store ptr null, ptr %3, align 8, !tbaa !3
  br label %12

12:                                               ; preds = %8, %11
  %13 = phi ptr [ %9, %8 ], [ null, %11 ]
  %14 = load ptr, ptr %4, align 8, !tbaa !3
  %15 = icmp eq ptr %14, @_Py_NoneStruct
  br i1 %15, label %16, label %17

16:                                               ; preds = %12
  store ptr null, ptr %4, align 8, !tbaa !3
  br label %17

17:                                               ; preds = %12, %16
  %18 = phi ptr [ %14, %12 ], [ null, %16 ]
  %19 = load i64, ptr %5, align 8, !tbaa !10
  %20 = load i64, ptr %6, align 8, !tbaa !10
  %21 = call i32 @PySequence_SetSlice(ptr noundef %13, i64 noundef %19, i64 noundef %20, ptr noundef %18) #4
  %22 = icmp eq i32 %21, -1
  %23 = call ptr @PyErr_Occurred() #4
  %.not5 = icmp eq ptr %23, null
  br i1 %22, label %24, label %26

24:                                               ; preds = %17
  br i1 %.not5, label %25, label %31

25:                                               ; preds = %24
  call void @__assert_fail(ptr noundef nonnull @.str.51, ptr noundef nonnull @.str.52, i32 noundef 449, ptr noundef nonnull @__PRETTY_FUNCTION__.sequence_setslice) #5
  unreachable

26:                                               ; preds = %17
  br i1 %.not5, label %28, label %27

27:                                               ; preds = %26
  call void @__assert_fail(ptr noundef nonnull @.str.53, ptr noundef nonnull @.str.52, i32 noundef 449, ptr noundef nonnull @__PRETTY_FUNCTION__.sequence_setslice) #5
  unreachable

28:                                               ; preds = %26
  %29 = sext i32 %21 to i64
  %30 = call ptr @PyLong_FromLong(i64 noundef %29) #4
  br label %31

31:                                               ; preds = %28, %24, %2
  %.0 = phi ptr [ null, %2 ], [ %30, %28 ], [ null, %24 ]
  call void @llvm.lifetime.end.p0(i64 8, ptr nonnull %6) #4
  call void @llvm.lifetime.end.p0(i64 8, ptr nonnull %5) #4
  call void @llvm.lifetime.end.p0(i64 8, ptr nonnull %4) #4
  call void @llvm.lifetime.end.p0(i64 8, ptr nonnull %3) #4
  ret ptr %.0
}